; ModuleID = 'source-C-CXX/6/876.cpp'
source_filename = "source-C-CXX/6/876.cpp"
target datalayout = "e-m:e-p270:32:32-p271:32:32-p272:64:64-i64:64-f80:128-n8:16:32:64-S128"
target triple = "x86_64-pc-linux-gnu"

%"class.std::ios_base::Init" = type { i8 }
%"class.std::basic_istream" = type { i32 (...)**, i64, %"class.std::basic_ios" }
%"class.std::basic_ios" = type { %"class.std::ios_base", %"class.std::basic_ostream"*, i8, i8, %"class.std::basic_streambuf"*, %"class.std::ctype"*, %"class.std::num_put"*, %"class.std::num_get"* }
%"class.std::ios_base" = type { i32 (...)**, i64, i64, i32, i32, i32, %"struct.std::ios_base::_Callback_list"*, %"struct.std::ios_base::_Words", [8 x %"struct.std::ios_base::_Words"], i32, %"struct.std::ios_base::_Words"*, %"class.std::locale" }
%"struct.std::ios_base::_Callback_list" = type { %"struct.std::ios_base::_Callback_list"*, void (i32, %"class.std::ios_base"*, i32)*, i32, i32 }
%"struct.std::ios_base::_Words" = type { i8*, i64 }
%"class.std::locale" = type { %"class.std::locale::_Impl"* }
%"class.std::locale::_Impl" = type { i32, %"class.std::locale::facet"**, i64, %"class.std::locale::facet"**, i8** }
%"class.std::locale::facet" = type <{ i32 (...)**, i32, [4 x i8] }>
%"class.std::basic_ostream" = type { i32 (...)**, %"class.std::basic_ios" }
%"class.std::basic_streambuf" = type { i32 (...)**, i8*, i8*, i8*, i8*, i8*, i8*, %"class.std::locale" }
%"class.std::ctype" = type <{ %"class.std::locale::facet.base", [4 x i8], %struct.__locale_struct*, i8, [7 x i8], i32*, i32*, i16*, i8, [256 x i8], [256 x i8], i8, [6 x i8] }>
%"class.std::locale::facet.base" = type <{ i32 (...)**, i32 }>
%struct.__locale_struct = type { [13 x %struct.__locale_data*], i16*, i32*, i32*, [13 x i8*] }
%struct.__locale_data = type opaque
%"class.std::num_put" = type { %"class.std::locale::facet.base", [4 x i8] }
%"class.std::num_get" = type { %"class.std::locale::facet.base", [4 x i8] }

@_ZStL8__ioinit = internal global %"class.std::ios_base::Init" zeroinitializer, align 1
@__dso_handle = external hidden global i8
@_ZSt3cin = external global %"class.std::basic_istream", align 8
@_ZSt4cout = external global %"class.std::basic_ostream", align 8
@llvm.global_ctors = appending global [1 x { i32, void ()*, i8* }] [{ i32, void ()*, i8* } { i32 65535, void ()* @_GLOBAL__sub_I_876.cpp, i8* null }]

declare void @_ZNSt8ios_base4InitC1Ev(%"class.std::ios_base::Init"* nonnull align 1 dereferenceable(1)) unnamed_addr #0

; Function Attrs: nounwind
declare void @_ZNSt8ios_base4InitD1Ev(%"class.std::ios_base::Init"* nonnull align 1 dereferenceable(1)) unnamed_addr #1

; Function Attrs: nofree nounwind
declare i32 @__cxa_atexit(void (i8*)*, i8*, i8*) local_unnamed_addr #2

; Function Attrs: mustprogress norecurse sspstrong uwtable
define dso_local i32 @main() local_unnamed_addr #3 {
  %1 = alloca [256 x i8], align 16
  %2 = alloca [256 x i8], align 16
  %3 = alloca [256 x i8], align 16
  %4 = getelementptr inbounds [256 x i8], [256 x i8]* %3, i64 0, i64 0
  %5 = getelementptr inbounds [256 x i8], [256 x i8]* %1, i64 0, i64 0
  call void @llvm.lifetime.start.p0i8(i64 256, i8* nonnull %5) #9
  %6 = getelementptr inbounds [256 x i8], [256 x i8]* %2, i64 0, i64 0
  call void @llvm.lifetime.start.p0i8(i64 256, i8* nonnull %6) #9
  %7 = getelementptr inbounds [256 x i8], [256 x i8]* %3, i64 0, i64 0
  call void @llvm.lifetime.start.p0i8(i64 256, i8* nonnull %7) #9
  call void @llvm.memset.p0i8.i64(i8* noundef nonnull align 16 dereferenceable(256) %5, i8 0, i64 256, i1 false)
  call void @llvm.memset.p0i8.i64(i8* noundef nonnull align 16 dereferenceable(256) %6, i8 0, i64 256, i1 false)
  call void @llvm.memset.p0i8.i64(i8* noundef nonnull align 16 dereferenceable(256) %7, i8 0, i64 256, i1 false)
  call void @_ZSt17__istream_extractRSiPcl(%"class.std::basic_istream"* nonnull align 8 dereferenceable(16) @_ZSt3cin, i8* nonnull %5, i64 256)
  call void @_ZSt17__istream_extractRSiPcl(%"class.std::basic_istream"* nonnull align 8 dereferenceable(16) @_ZSt3cin, i8* nonnull %6, i64 256)
  call void @_ZSt17__istream_extractRSiPcl(%"class.std::basic_istream"* nonnull align 8 dereferenceable(16) @_ZSt3cin, i8* nonnull %7, i64 256)
  %8 = call i8* @strstr(i8* noundef nonnull %5, i8* noundef nonnull %6) #10
  %9 = call i64 @strlen(i8* noundef nonnull %6) #10
  %10 = trunc i64 %9 to i32
  %11 = icmp ne i8* %8, null
  %12 = icmp sgt i32 %10, 0
  %13 = select i1 %11, i1 %12, i1 false
  br i1 %13, label %14, label %99

14:                                               ; preds = %0
  %15 = and i64 %9, 4294967295
  %16 = icmp ult i64 %15, 8
  br i1 %16, label %61, label %17

17:                                               ; preds = %14
  %18 = getelementptr i8, i8* %8, i64 %15
  %19 = getelementptr [256 x i8], [256 x i8]* %3, i64 0, i64 %15
  %20 = icmp ult i8* %8, %19
  %21 = icmp ult i8* %4, %18
  %22 = and i1 %20, %21
  br i1 %22, label %61, label %23

23:                                               ; preds = %17
  %24 = icmp ult i64 %15, 32
  br i1 %24, label %46, label %25

25:                                               ; preds = %23
  %26 = and i64 %9, 31
  %27 = sub nsw i64 %15, %26
  br label %28

28:                                               ; preds = %28, %25
  %29 = phi i64 [ 0, %25 ], [ %40, %28 ]
  %30 = getelementptr inbounds [256 x i8], [256 x i8]* %3, i64 0, i64 %29
  %31 = bitcast i8* %30 to <16 x i8>*
  %32 = load <16 x i8>, <16 x i8>* %31, align 16, !tbaa !5, !alias.scope !8
  %33 = getelementptr inbounds i8, i8* %30, i64 16
  %34 = bitcast i8* %33 to <16 x i8>*
  %35 = load <16 x i8>, <16 x i8>* %34, align 16, !tbaa !5, !alias.scope !8
  %36 = getelementptr inbounds i8, i8* %8, i64 %29
  %37 = bitcast i8* %36 to <16 x i8>*
  store <16 x i8> %32, <16 x i8>* %37, align 1, !tbaa !5, !alias.scope !11, !noalias !8
  %38 = getelementptr inbounds i8, i8* %36, i64 16
  %39 = bitcast i8* %38 to <16 x i8>*
  store <16 x i8> %35, <16 x i8>* %39, align 1, !tbaa !5, !alias.scope !11, !noalias !8
  %40 = add nuw i64 %29, 32
  %41 = icmp eq i64 %40, %27
  br i1 %41, label %42, label %28, !llvm.loop !13

42:                                               ; preds = %28
  %43 = icmp eq i64 %26, 0
  br i1 %43, label %99, label %44

44:                                               ; preds = %42
  %45 = icmp ult i64 %26, 8
  br i1 %45, label %61, label %46

46:                                               ; preds = %23, %44
  %47 = phi i64 [ %27, %44 ], [ 0, %23 ]
  %48 = and i64 %9, 7
  %49 = sub nsw i64 %15, %48
  br label %50

50:                                               ; preds = %50, %46
  %51 = phi i64 [ %47, %46 ], [ %57, %50 ]
  %52 = getelementptr inbounds [256 x i8], [256 x i8]* %3, i64 0, i64 %51
  %53 = bitcast i8* %52 to <8 x i8>*
  %54 = load <8 x i8>, <8 x i8>* %53, align 1, !tbaa !5
  %55 = getelementptr inbounds i8, i8* %8, i64 %51
  %56 = bitcast i8* %55 to <8 x i8>*
  store <8 x i8> %54, <8 x i8>* %56, align 1, !tbaa !5
  %57 = add nuw i64 %51, 8
  %58 = icmp eq i64 %57, %49
  br i1 %58, label %59, label %50, !llvm.loop !16

59:                                               ; preds = %50
  %60 = icmp eq i64 %48, 0
  br i1 %60, label %99, label %61

61:                                               ; preds = %17, %14, %44, %59
  %62 = phi i64 [ 0, %14 ], [ 0, %17 ], [ %27, %44 ], [ %49, %59 ]
  %63 = sub i64 %9, %62
  %64 = xor i64 %62, -1
  %65 = add nsw i64 %15, %64
  %66 = and i64 %63, 3
  %67 = icmp eq i64 %66, 0
  br i1 %67, label %77, label %68

68:                                               ; preds = %61, %68
  %69 = phi i64 [ %74, %68 ], [ %62, %61 ]
  %70 = phi i64 [ %75, %68 ], [ %66, %61 ]
  %71 = getelementptr inbounds [256 x i8], [256 x i8]* %3, i64 0, i64 %69
  %72 = load i8, i8* %71, align 1, !tbaa !5
  %73 = getelementptr inbounds i8, i8* %8, i64 %69
  store i8 %72, i8* %73, align 1, !tbaa !5
  %74 = add nuw nsw i64 %69, 1
  %75 = add i64 %70, -1
  %76 = icmp eq i64 %75, 0
  br i1 %76, label %77, label %68, !llvm.loop !17

77:                                               ; preds = %68, %61
  %78 = phi i64 [ %62, %61 ], [ %74, %68 ]
  %79 = icmp ult i64 %65, 3
  br i1 %79, label %99, label %80

80:                                               ; preds = %77, %80
  %81 = phi i64 [ %97, %80 ], [ %78, %77 ]
  %82 = getelementptr inbounds [256 x i8], [256 x i8]* %3, i64 0, i64 %81
  %83 = load i8, i8* %82, align 1, !tbaa !5
  %84 = getelementptr inbounds i8, i8* %8, i64 %81
  store i8 %83, i8* %84, align 1, !tbaa !5
  %85 = add nuw nsw i64 %81, 1
  %86 = getelementptr inbounds [256 x i8], [256 x i8]* %3, i64 0, i64 %85
  %87 = load i8, i8* %86, align 1, !tbaa !5
  %88 = getelementptr inbounds i8, i8* %8, i64 %85
  store i8 %87, i8* %88, align 1, !tbaa !5
  %89 = add nuw nsw i64 %81, 2
  %90 = getelementptr inbounds [256 x i8], [256 x i8]* %3, i64 0, i64 %89
  %91 = load i8, i8* %90, align 1, !tbaa !5
  %92 = getelementptr inbounds i8, i8* %8, i64 %89
  store i8 %91, i8* %92, align 1, !tbaa !5
  %93 = add nuw nsw i64 %81, 3
  %94 = getelementptr inbounds [256 x i8], [256 x i8]* %3, i64 0, i64 %93
  %95 = load i8, i8* %94, align 1, !tbaa !5
  %96 = getelementptr inbounds i8, i8* %8, i64 %93
  store i8 %95, i8* %96, align 1, !tbaa !5
  %97 = add nuw nsw i64 %81, 4
  %98 = icmp eq i64 %97, %15
  br i1 %98, label %99, label %80, !llvm.loop !19

99:                                               ; preds = %77, %80, %42, %59, %0
  %100 = call i64 @strlen(i8* noundef nonnull dereferenceable(1) %5) #9
  %101 = call nonnull align 8 dereferenceable(8) %"class.std::basic_ostream"* @_ZSt16__ostream_insertIcSt11char_traitsIcEERSt13basic_ostreamIT_T0_ES6_PKS3_l(%"class.std::basic_ostream"* nonnull align 8 dereferenceable(8) @_ZSt4cout, i8* nonnull %5, i64 %100)
  %102 = load i8*, i8** bitcast (%"class.std::basic_ostream"* @_ZSt4cout to i8**), align 8, !tbaa !20
  %103 = getelementptr i8, i8* %102, i64 -24
  %104 = bitcast i8* %103 to i64*
  %105 = load i64, i64* %104, align 8
  %106 = add nsw i64 %105, 240
  %107 = getelementptr inbounds i8, i8* bitcast (%"class.std::basic_ostream"* @_ZSt4cout to i8*), i64 %106
  %108 = bitcast i8* %107 to %"class.std::ctype"**
  %109 = load %"class.std::ctype"*, %"class.std::ctype"** %108, align 8, !tbaa !22
  %110 = icmp eq %"class.std::ctype"* %109, null
  br i1 %110, label %111, label %112

111:                                              ; preds = %99
  call void @_ZSt16__throw_bad_castv() #11
  unreachable

112:                                              ; preds = %99
  %113 = getelementptr inbounds %"class.std::ctype", %"class.std::ctype"* %109, i64 0, i32 8
  %114 = load i8, i8* %113, align 8, !tbaa !26
  %115 = icmp eq i8 %114, 0
  br i1 %115, label %119, label %116

116:                                              ; preds = %112
  %117 = getelementptr inbounds %"class.std::ctype", %"class.std::ctype"* %109, i64 0, i32 9, i64 10
  %118 = load i8, i8* %117, align 1, !tbaa !5
  br label %125

119:                                              ; preds = %112
  call void @_ZNKSt5ctypeIcE13_M_widen_initEv(%"class.std::ctype"* nonnull align 8 dereferenceable(570) %109)
  %120 = bitcast %"class.std::ctype"* %109 to i8 (%"class.std::ctype"*, i8)***
  %121 = load i8 (%"class.std::ctype"*, i8)**, i8 (%"class.std::ctype"*, i8)*** %120, align 8, !tbaa !20
  %122 = getelementptr inbounds i8 (%"class.std::ctype"*, i8)*, i8 (%"class.std::ctype"*, i8)** %121, i64 6
  %123 = load i8 (%"class.std::ctype"*, i8)*, i8 (%"class.std::ctype"*, i8)** %122, align 8
  %124 = call signext i8 %123(%"class.std::ctype"* nonnull align 8 dereferenceable(570) %109, i8 signext 10)
  br label %125

125:                                              ; preds = %116, %119
  %126 = phi i8 [ %118, %116 ], [ %124, %119 ]
  %127 = call nonnull align 8 dereferenceable(8) %"class.std::basic_ostream"* @_ZNSo3putEc(%"class.std::basic_ostream"* nonnull align 8 dereferenceable(8) @_ZSt4cout, i8 signext %126)
  %128 = call nonnull align 8 dereferenceable(8) %"class.std::basic_ostream"* @_ZNSo5flushEv(%"class.std::basic_ostream"* nonnull align 8 dereferenceable(8) %127)
  call void @llvm.lifetime.end.p0i8(i64 256, i8* nonnull %7) #9
  call void @llvm.lifetime.end.p0i8(i64 256, i8* nonnull %6) #9
  call void @llvm.lifetime.end.p0i8(i64 256, i8* nonnull %5) #9
  ret i32 0
}

; Function Attrs: argmemonly mustprogress nofree nosync nounwind willreturn
declare void @llvm.lifetime.start.p0i8(i64 immarg, i8* nocapture) #4

; Function Attrs: argmemonly mustprogress nofree nounwind willreturn writeonly
declare void @llvm.memset.p0i8.i64(i8* nocapture writeonly, i8, i64, i1 immarg) #5

; Function Attrs: argmemonly mustprogress nofree nounwind readonly willreturn
declare i8* @strstr(i8*, i8* nocapture) local_unnamed_addr #6

; Function Attrs: argmemonly mustprogress nofree nounwind readonly willreturn
declare i64 @strlen(i8* nocapture) local_unnamed_addr #6

; Function Attrs: argmemonly mustprogress nofree nosync nounwind willreturn
declare void @llvm.lifetime.end.p0i8(i64 immarg, i8* nocapture) #4

declare void @_ZSt17__istream_extractRSiPcl(%"class.std::basic_istream"* nonnull align 8 dereferenceable(16), i8*, i64) local_unnamed_addr #0

declare nonnull align 8 dereferenceable(8) %"class.std::basic_ostream"* @_ZSt16__ostream_insertIcSt11char_traitsIcEERSt13basic_ostreamIT_T0_ES6_PKS3_l(%"class.std::basic_ostream"* nonnull align 8 dereferenceable(8), i8*, i64) local_unnamed_addr #0

declare nonnull align 8 dereferenceable(8) %"class.std::basic_ostream"* @_ZNSo3putEc(%"class.std::basic_ostream"* nonnull align 8 dereferenceable(8), i8 signext) local_unnamed_addr #0

declare nonnull align 8 dereferenceable(8) %"class.std::basic_ostream"* @_ZNSo5flushEv(%"class.std::basic_ostream"* nonnull align 8 dereferenceable(8)) local_unnamed_addr #0

; Function Attrs: noreturn
declare void @_ZSt16__throw_bad_castv() local_unnamed_addr #7

declare void @_ZNKSt5ctypeIcE13_M_widen_initEv(%"class.std::ctype"* nonnull align 8 dereferenceable(570)) local_unnamed_addr #0

; Function Attrs: sspstrong uwtable
define internal void @_GLOBAL__sub_I_876.cpp() #8 section ".text.startup" {
  tail call void @_ZNSt8ios_base4InitC1Ev(%"class.std::ios_base::Init"* nonnull align 1 dereferenceable(1) @_ZStL8__ioinit)
  %1 = tail call i32 @__cxa_atexit(void (i8*)* bitcast (void (%"class.std::ios_base::Init"*)* @_ZNSt8ios_base4InitD1Ev to void (i8*)*), i8* getelementptr inbounds (%"class.std::ios_base::Init", %"class.std::ios_base::Init"* @_ZStL8__ioinit, i64 0, i32 0), i8* nonnull @__dso_handle) #9
  ret void
}


!llvm.module.flags = !{!0, !1, !2, !3}
!llvm.ident = !{!4}

!0 = !{i32 1, !"wchar_size", i32 4}
!1 = !{i32 7, !"PIC Level", i32 2}
!2 = !{i32 7, !"PIE Level", i32 2}
!3 = !{i32 7, !"uwtable", i32 1}
!4 = !{!"clang version 13.0.0"}
!5 = !{!6, !6, i64 0}
!6 = !{!"omnipotent char", !7, i64 0}
!7 = !{!"Simple C++ TBAA"}
!8 = !{!9}
!9 = distinct !{!9, !10}
!10 = distinct !{!10, !"LVerDomain"}
!11 = !{!12}
!12 = distinct !{!12, !10}
!13 = distinct !{!13, !14, !15}
!14 = !{!"llvm.loop.mustprogress"}
!15 = !{!"llvm.loop.isvectorized", i32 1}
!16 = distinct !{!16, !14, !15}
!17 = distinct !{!17, !18}
!18 = !{!"llvm.loop.unroll.disable"}
!19 = distinct !{!19, !14, !15}
!20 = !{!21, !21, i64 0}
!21 = !{!"vtable pointer", !7, i64 0}
!22 = !{!23, !24, i64 240}
!23 = !{!"_ZTSSt9basic_iosIcSt11char_traitsIcEE", !24, i64 216, !6, i64 224, !25, i64 225, !24, i64 232, !24, i64 240, !24, i64 248, !24, i64 256}
!24 = !{!"any pointer", !6, i64 0}
!25 = !{!"bool", !6, i64 0}
!26 = !{!27, !6, i64 56}
!27 = !{!"_ZTSSt5ctypeIcE", !24, i64 16, !25, i64 24, !24, i64 32, !24, i64 40, !24, i64 48, !6, i64 56, !6, i64 57, !6, i64 313, !6, i64 569}
